target datalayout = "e-m:e-p270:32:32-p271:32:32-p272:64:64-i64:64-i128:128-f80:128-n8:16:32:64-S128"
target triple = "x86_64-pc-linux-gnu"

%struct.sapi_header_line = type { ptr, i64, i64 }

@.str.203 = private unnamed_addr constant [27 x i8] c"HTTP/1.0 403 Access Denied\00", align 1
@.str.204 = private unnamed_addr constant [81 x i8] c"<html>\0A <head>\0A  <title>Access Denied</title>\0A </head>\0A <body>\0A  <h1>403 - File \00", align 1
@.str.205 = private unnamed_addr constant [36 x i8] c"Access Denied</h1>\0A </body>\0A</html>\00", align 1

; Function Attrs: nounwind uwtable
define internal void @phar_do_403(ptr noundef %0, i64 noundef %1) #0 {
  %3 = alloca ptr, align 8
  %4 = alloca i64, align 8
  %5 = alloca %struct.sapi_header_line, align 8
  store ptr %0, ptr %3, align 8, !tbaa !49
  store i64 %1, ptr %4, align 8, !tbaa !52
  call void @llvm.lifetime.start.p0(i64 24, ptr %5) #17
  call void @llvm.memset.p0.i64(ptr align 8 %5, i8 0, i64 24, i1 false)
  %6 = getelementptr inbounds nuw %struct.sapi_header_line, ptr %5, i32 0, i32 2
  store i64 403, ptr %6, align 8, !tbaa !87
  %7 = getelementptr inbounds nuw %struct.sapi_header_line, ptr %5, i32 0, i32 1
  store i64 26, ptr %7, align 8, !tbaa !89
  %8 = getelementptr inbounds nuw %struct.sapi_header_line, ptr %5, i32 0, i32 0
  store ptr @.str.203, ptr %8, align 8, !tbaa !90
  %9 = call i32 @sapi_header_op(i32 noundef 0, ptr noundef %5)
  %10 = call i32 @sapi_send_headers()
  %11 = call i64 @php_output_write(ptr noundef @.str.204, i64 noundef 80)
  %12 = call i64 @php_output_write(ptr noundef @.str.205, i64 noundef 35)
  call void @llvm.lifetime.end.p0(i64 24, ptr %5) #17
  ret void
}