; Function Attrs: nounwind uwtable
define internal fastcc void @phar_do_403() unnamed_addr #0 {
  %1 = alloca %struct.sapi_header_line, align 8
  call void @llvm.lifetime.start.p0(i64 24, ptr nonnull %1) #20
  %2 = getelementptr inbounds nuw i8, ptr %1, i64 16
  store i64 403, ptr %2, align 8, !tbaa !85
  %3 = getelementptr inbounds nuw i8, ptr %1, i64 8
  store i64 26, ptr %3, align 8, !tbaa !87
  store ptr @.str.203, ptr %1, align 8, !tbaa !88
  %4 = call i32 @sapi_header_op(i32 noundef 0, ptr noundef nonnull %1) #20
  %5 = call i32 @sapi_send_headers() #20
  %6 = call i64 @php_output_write(ptr noundef nonnull @.str.204, i64 noundef 80) #20
  %7 = call i64 @php_output_write(ptr noundef nonnull @.str.205, i64 noundef 35) #20
  call void @llvm.lifetime.end.p0(i64 24, ptr nonnull %1) #20
  ret void
}